; Function Attrs: mustprogress uwtable
define hidden void @_ZN7nanogui11PopupButton14perform_layoutEP10NVGcontext(ptr noundef nonnull align 8 dereferenceable(324) %0, ptr noundef %1) unnamed_addr #0 align 2 {
  tail call void @_ZN7nanogui6Widget14perform_layoutEP10NVGcontext(ptr noundef nonnull align 8 dereferenceable(140) %0, ptr noundef %1)
  %3 = tail call noundef ptr @_ZN7nanogui6Widget6windowEv(ptr noundef nonnull align 8 dereferenceable(140) %0)
  %4 = getelementptr inbounds i8, ptr %0, i64 312
  %5 = load ptr, ptr %4, align 8
  %6 = getelementptr inbounds i8, ptr %5, i64 212
  %7 = load i32, ptr %6, align 4
  %8 = sub i32 0, %7
  %.not = icmp eq ptr %3, null
  %9 = tail call i64 @_ZNK7nanogui6Widget17absolute_positionEv(ptr noundef nonnull align 8 dereferenceable(140) %0)
  %10 = getelementptr inbounds i8, ptr %0, i64 52
  %11 = load i32, ptr %10, align 4
  br i1 %.not, label %_ZN7nanoguiplERKNS_5ArrayIiLm2EEES3_.exit.critedge, label %12

12:                                               ; preds = %2
  %.sroa.1.0.extract.shift = lshr i64 %9, 32
  %.sroa.1.0.extract.trunc = trunc i64 %.sroa.1.0.extract.shift to i32
  %13 = getelementptr inbounds i8, ptr %3, i64 44
  %14 = load i32, ptr %13, align 4
  %15 = sub nsw i32 %.sroa.1.0.extract.trunc, %14
  %16 = load ptr, ptr %4, align 8
  %17 = getelementptr inbounds i8, ptr %16, i64 216
  %18 = load i32, ptr %17, align 8
  %19 = icmp eq i32 %18, 1
  br i1 %19, label %20, label %25

20:                                               ; preds = %12
  %21 = getelementptr inbounds i8, ptr %3, i64 48
  %22 = load i32, ptr %21, align 4
  %23 = add nsw i32 %22, %7
  %24 = getelementptr inbounds i8, ptr %16, i64 200
  br label %34

25:                                               ; preds = %12
  %26 = getelementptr inbounds i8, ptr %16, i64 200
  br label %34

_ZN7nanoguiplERKNS_5ArrayIiLm2EEES3_.exit.critedge: ; preds = %2
  %.sroa.013.0.extract.trunc = trunc i64 %9 to i32
  %.sroa.214.0.extract.shift = lshr i64 %9, 32
  %.sroa.214.0.extract.trunc = trunc i64 %.sroa.214.0.extract.shift to i32
  %27 = getelementptr inbounds i8, ptr %0, i64 48
  %28 = load i32, ptr %27, align 8
  %29 = add i32 %7, 1
  %30 = add i32 %29, %28
  %31 = add nsw i32 %30, %.sroa.013.0.extract.trunc
  %32 = sub i32 %.sroa.214.0.extract.trunc, %7
  %33 = getelementptr inbounds i8, ptr %5, i64 40
  br label %34

34:                                               ; preds = %20, %25, %_ZN7nanoguiplERKNS_5ArrayIiLm2EEES3_.exit.critedge
  %.pn = phi i32 [ %15, %20 ], [ %15, %25 ], [ %32, %_ZN7nanoguiplERKNS_5ArrayIiLm2EEES3_.exit.critedge ]
  %.sink25 = phi i32 [ %23, %20 ], [ %8, %25 ], [ %31, %_ZN7nanoguiplERKNS_5ArrayIiLm2EEES3_.exit.critedge ]
  %.sink = phi ptr [ %24, %20 ], [ %26, %25 ], [ %33, %_ZN7nanoguiplERKNS_5ArrayIiLm2EEES3_.exit.critedge ]
  %35 = sdiv i32 %11, 2
  %.sink26 = add i32 %.pn, %35
  %.sroa.221.0.insert.ext = zext i32 %.sink26 to i64
  %.sroa.221.0.insert.shift = shl nuw i64 %.sroa.221.0.insert.ext, 32
  %.sroa.020.0.insert.ext = zext i32 %.sink25 to i64
  %.sroa.020.0.insert.insert = or disjoint i64 %.sroa.221.0.insert.shift, %.sroa.020.0.insert.ext
  store i64 %.sroa.020.0.insert.insert, ptr %.sink, align 8
  ret void
}